; Function Attrs: mustprogress nofree norecurse nosync nounwind willreturn memory(argmem: write) uwtable
define internal void @snd_cons(ptr noundef writeonly captures(none) initializes((284, 852), (856, 873), (876, 896)) %0) #8 {
  %2 = getelementptr inbounds nuw i8, ptr %0, i64 284
  tail call void @llvm.memset.p0.i64(ptr noundef nonnull align 4 dereferenceable(568) %2, i8 0, i64 568, i1 false)
  %3 = getelementptr inbounds nuw i8, ptr %0, i64 856
  %4 = getelementptr inbounds nuw i8, ptr %0, i64 876
  tail call void @llvm.memset.p0.i64(ptr noundef nonnull align 8 dereferenceable(17) %3, i8 0, i64 17, i1 false)
  tail call void @llvm.memset.p0.i64(ptr noundef nonnull align 4 dereferenceable(20) %4, i8 0, i64 20, i1 false)
  ret void
}